target datalayout = "e-m:e-p270:32:32-p271:32:32-p272:64:64-i64:64-i128:128-f80:128-n8:16:32:64-S128"
target triple = "x86_64-pc-linux-gnu"

%struct.IDAMemRec = type { double, ptr, ptr, i32, double, double, ptr, i32, ptr, ptr, i32, ptr, ptr, i32, i32, double, double, ptr, i32, i32, i32, ptr, ptr, i32, ptr, ptr, ptr, i32, double, i32, i32, double, ptr, ptr, i32, ptr, ptr, i32, i32, i32, double, ptr, ptr, [6 x ptr], [6 x double], [6 x double], [6 x double], [6 x double], [6 x double], ptr, ptr, ptr, ptr, ptr, ptr, ptr, ptr, ptr, ptr, ptr, ptr, ptr, ptr, ptr, [6 x ptr], ptr, ptr, ptr, ptr, [6 x ptr], ptr, ptr, ptr, ptr, ptr, ptr, ptr, ptr, ptr, ptr, ptr, ptr, ptr, ptr, [6 x ptr], ptr, ptr, ptr, ptr, ptr, double, ptr, ptr, i32, i32, i32, i32, i32, i32, i32, double, double, double, i32, double, i32, i32, i32, i32, double, double, double, double, double, double, double, double, double, double, double, double, double, double, i32, i32, i32, i32, i32, i64, double, i32, i64, i64, i64, i64, i64, i64, i64, i64, i64, i64, i64, i64, i64, i64, i64, i64, i64, i64, i64, i64, i64, i64, i64, i64, ptr, ptr, ptr, i32, i32, i32, i32, i32, i32, i32, i32, i32, i32, i32, i32, i32, ptr, ptr, ptr, ptr, ptr, ptr, i32, i32, i32, i32, i32, i32, double, double, double, ptr, i32, ptr, ptr, double, double, double, ptr, ptr, ptr, double, double, i32, i32, i64, ptr, i32, i32, ptr, i32 }
%struct.IDAadjMemRec = type { double, double, i32, i32, double, ptr, i32, ptr, i32, ptr, ptr, i32, i64, ptr, i64, i32, ptr, ptr, ptr, ptr, i32, i32, i32, i32, i32, [6 x ptr], [6 x ptr], [6 x double], ptr, ptr, ptr, ptr, i64 }
%struct.IDABMemRec = type { i32, double, ptr, i32, i32, ptr, ptr, ptr, ptr, ptr, ptr, ptr, ptr, ptr, double, ptr, ptr, ptr }

@.str = private unnamed_addr constant [5 x i8] c"IDAA\00", align 1
@.str.2 = private unnamed_addr constant [24 x i8] c"ida_mem = NULL illegal.\00", align 1
@.str.7 = private unnamed_addr constant [51 x i8] c"Illegal attempt to call before calling IDAadjInit.\00", align 1
@.str.15 = private unnamed_addr constant [88 x i8] c"The initial time tB0 is outside the interval over which the forward problem was solved.\00", align 1
@.str.16 = private unnamed_addr constant [25 x i8] c"Illegal value for which.\00", align 1
@.str.17 = private unnamed_addr constant [10 x i8] c"IDAInitBS\00", align 1
@.str.18 = private unnamed_addr constant [98 x i8] c"At least one backward problem requires sensitivities, but they were not stored for interpolation.\00", align 1

; Function Attrs: nounwind uwtable
define i32 @IDAInitBS(ptr noundef %0, i32 noundef %1, ptr noundef %2, double noundef %3, ptr noundef %4, ptr noundef %5) #0 {
  %7 = alloca i32, align 4
  %8 = alloca ptr, align 8
  %9 = alloca i32, align 4
  %10 = alloca ptr, align 8
  %11 = alloca double, align 8
  %12 = alloca ptr, align 8
  %13 = alloca ptr, align 8
  %14 = alloca ptr, align 8
  %15 = alloca ptr, align 8
  %16 = alloca ptr, align 8
  %17 = alloca ptr, align 8
  %18 = alloca i32, align 4
  %19 = alloca i32, align 4
  store ptr %0, ptr %8, align 8, !tbaa !3
  store i32 %1, ptr %9, align 4, !tbaa !9
  store ptr %2, ptr %10, align 8, !tbaa !3
  store double %3, ptr %11, align 8, !tbaa !73
  store ptr %4, ptr %12, align 8, !tbaa !74
  store ptr %5, ptr %13, align 8, !tbaa !74
  call void @llvm.lifetime.start.p0(i64 8, ptr %14) #6
  call void @llvm.lifetime.start.p0(i64 8, ptr %15) #6
  call void @llvm.lifetime.start.p0(i64 8, ptr %16) #6
  call void @llvm.lifetime.start.p0(i64 8, ptr %17) #6
  call void @llvm.lifetime.start.p0(i64 4, ptr %18) #6
  %20 = load ptr, ptr %8, align 8, !tbaa !3
  %21 = icmp eq ptr %20, null
  br i1 %21, label %22, label %23

22:                                               ; preds = %6
  call void (ptr, i32, ptr, ptr, ptr, ...) @IDAProcessError(ptr noundef null, i32 noundef -20, ptr noundef @.str, ptr noundef @.str.17, ptr noundef @.str.2)
  store i32 -20, ptr %7, align 4
  store i32 1, ptr %19, align 4
  br label %119

23:                                               ; preds = %6
  %24 = load ptr, ptr %8, align 8, !tbaa !3
  store ptr %24, ptr %15, align 8, !tbaa !11
  %25 = load ptr, ptr %15, align 8, !tbaa !11
  %26 = getelementptr inbounds nuw %struct.IDAMemRec, ptr %25, i32 0, i32 205
  %27 = load i32, ptr %26, align 8, !tbaa !51
  %28 = icmp eq i32 %27, 0
  br i1 %28, label %29, label %31

29:                                               ; preds = %23
  %30 = load ptr, ptr %15, align 8, !tbaa !11
  call void (ptr, i32, ptr, ptr, ptr, ...) @IDAProcessError(ptr noundef %30, i32 noundef -101, ptr noundef @.str, ptr noundef @.str.17, ptr noundef @.str.7)
  store i32 -101, ptr %7, align 4
  store i32 1, ptr %19, align 4
  br label %119

31:                                               ; preds = %23
  %32 = load ptr, ptr %15, align 8, !tbaa !11
  %33 = getelementptr inbounds nuw %struct.IDAMemRec, ptr %32, i32 0, i32 204
  %34 = load ptr, ptr %33, align 8, !tbaa !15
  store ptr %34, ptr %14, align 8, !tbaa !13
  %35 = load double, ptr %11, align 8, !tbaa !73
  %36 = load ptr, ptr %14, align 8, !tbaa !13
  %37 = getelementptr inbounds nuw %struct.IDAadjMemRec, ptr %36, i32 0, i32 0
  %38 = load double, ptr %37, align 8, !tbaa !94
  %39 = fcmp olt double %35, %38
  br i1 %39, label %46, label %40

40:                                               ; preds = %31
  %41 = load double, ptr %11, align 8, !tbaa !73
  %42 = load ptr, ptr %14, align 8, !tbaa !13
  %43 = getelementptr inbounds nuw %struct.IDAadjMemRec, ptr %42, i32 0, i32 1
  %44 = load double, ptr %43, align 8, !tbaa !93
  %45 = fcmp ogt double %41, %44
  br i1 %45, label %46, label %48

46:                                               ; preds = %40, %31
  %47 = load ptr, ptr %15, align 8, !tbaa !11
  call void (ptr, i32, ptr, ptr, ptr, ...) @IDAProcessError(ptr noundef %47, i32 noundef -104, ptr noundef @.str, ptr noundef @.str.17, ptr noundef @.str.15)
  store i32 -104, ptr %7, align 4
  store i32 1, ptr %19, align 4
  br label %119

48:                                               ; preds = %40
  %49 = load ptr, ptr %14, align 8, !tbaa !13
  %50 = getelementptr inbounds nuw %struct.IDAadjMemRec, ptr %49, i32 0, i32 22
  %51 = load i32, ptr %50, align 8, !tbaa !41
  %52 = icmp ne i32 %51, 0
  br i1 %52, label %55, label %53

53:                                               ; preds = %48
  %54 = load ptr, ptr %15, align 8, !tbaa !11
  call void (ptr, i32, ptr, ptr, ptr, ...) @IDAProcessError(ptr noundef %54, i32 noundef -22, ptr noundef @.str, ptr noundef @.str.17, ptr noundef @.str.18)
  store i32 -22, ptr %7, align 4
  store i32 1, ptr %19, align 4
  br label %119

55:                                               ; preds = %48
  %56 = load i32, ptr %9, align 4, !tbaa !9
  %57 = load ptr, ptr %14, align 8, !tbaa !13
  %58 = getelementptr inbounds nuw %struct.IDAadjMemRec, ptr %57, i32 0, i32 6
  %59 = load i32, ptr %58, align 8, !tbaa !46
  %60 = icmp sge i32 %56, %59
  br i1 %60, label %61, label %63

61:                                               ; preds = %55
  %62 = load ptr, ptr %15, align 8, !tbaa !11
  call void (ptr, i32, ptr, ptr, ptr, ...) @IDAProcessError(ptr noundef %62, i32 noundef -22, ptr noundef @.str, ptr noundef @.str.17, ptr noundef @.str.16)
  store i32 -22, ptr %7, align 4
  store i32 1, ptr %19, align 4
  br label %119

63:                                               ; preds = %55
  %64 = load ptr, ptr %14, align 8, !tbaa !13
  %65 = getelementptr inbounds nuw %struct.IDAadjMemRec, ptr %64, i32 0, i32 5
  %66 = load ptr, ptr %65, align 8, !tbaa !44
  store ptr %66, ptr %16, align 8, !tbaa !132
  br label %67

67:                                               ; preds = %77, %63
  %68 = load ptr, ptr %16, align 8, !tbaa !132
  %69 = icmp ne ptr %68, null
  br i1 %69, label %70, label %81

70:                                               ; preds = %67
  %71 = load i32, ptr %9, align 4, !tbaa !9
  %72 = load ptr, ptr %16, align 8, !tbaa !132
  %73 = getelementptr inbounds nuw %struct.IDABMemRec, ptr %72, i32 0, i32 0
  %74 = load i32, ptr %73, align 8, !tbaa !192
  %75 = icmp eq i32 %71, %74
  br i1 %75, label %76, label %77

76:                                               ; preds = %70
  br label %81

77:                                               ; preds = %70
  %78 = load ptr, ptr %16, align 8, !tbaa !132
  %79 = getelementptr inbounds nuw %struct.IDABMemRec, ptr %78, i32 0, i32 17
  %80 = load ptr, ptr %79, align 8, !tbaa !133
  store ptr %80, ptr %16, align 8, !tbaa !132
  br label %67, !llvm.loop !204

81:                                               ; preds = %76, %67
  %82 = load ptr, ptr %16, align 8, !tbaa !132
  %83 = getelementptr inbounds nuw %struct.IDABMemRec, ptr %82, i32 0, i32 2
  %84 = load ptr, ptr %83, align 8, !tbaa !135
  store ptr %84, ptr %17, align 8, !tbaa !3
  %85 = load ptr, ptr %17, align 8, !tbaa !3
  %86 = load double, ptr %11, align 8, !tbaa !73
  %87 = load ptr, ptr %12, align 8, !tbaa !74
  %88 = load ptr, ptr %13, align 8, !tbaa !74
  %89 = call i32 @IDAInit(ptr noundef %85, ptr noundef @IDAAres, double noundef %86, ptr noundef %87, ptr noundef %88)
  store i32 %89, ptr %18, align 4, !tbaa !9
  %90 = load i32, ptr %18, align 4, !tbaa !9
  %91 = icmp ne i32 %90, 0
  br i1 %91, label %92, label %94

92:                                               ; preds = %81
  %93 = load i32, ptr %18, align 4, !tbaa !9
  store i32 %93, ptr %7, align 4
  store i32 1, ptr %19, align 4
  br label %119

94:                                               ; preds = %81
  %95 = load ptr, ptr %16, align 8, !tbaa !132
  %96 = getelementptr inbounds nuw %struct.IDABMemRec, ptr %95, i32 0, i32 3
  store i32 1, ptr %96, align 8, !tbaa !200
  %97 = load ptr, ptr %10, align 8, !tbaa !3
  %98 = load ptr, ptr %16, align 8, !tbaa !132
  %99 = getelementptr inbounds nuw %struct.IDABMemRec, ptr %98, i32 0, i32 6
  store ptr %97, ptr %99, align 8, !tbaa !194
  %100 = load double, ptr %11, align 8, !tbaa !73
  %101 = load ptr, ptr %16, align 8, !tbaa !132
  %102 = getelementptr inbounds nuw %struct.IDABMemRec, ptr %101, i32 0, i32 1
  store double %100, ptr %102, align 8, !tbaa !203
  %103 = load ptr, ptr %12, align 8, !tbaa !74
  %104 = call ptr @N_VClone(ptr noundef %103)
  %105 = load ptr, ptr %16, align 8, !tbaa !132
  %106 = getelementptr inbounds nuw %struct.IDABMemRec, ptr %105, i32 0, i32 15
  store ptr %104, ptr %106, align 8, !tbaa !138
  %107 = load ptr, ptr %13, align 8, !tbaa !74
  %108 = call ptr @N_VClone(ptr noundef %107)
  %109 = load ptr, ptr %16, align 8, !tbaa !132
  %110 = getelementptr inbounds nuw %struct.IDABMemRec, ptr %109, i32 0, i32 16
  store ptr %108, ptr %110, align 8, !tbaa !139
  %111 = load ptr, ptr %12, align 8, !tbaa !74
  %112 = load ptr, ptr %16, align 8, !tbaa !132
  %113 = getelementptr inbounds nuw %struct.IDABMemRec, ptr %112, i32 0, i32 15
  %114 = load ptr, ptr %113, align 8, !tbaa !138
  call void @N_VScale(double noundef 1.000000e+00, ptr noundef %111, ptr noundef %114)
  %115 = load ptr, ptr %13, align 8, !tbaa !74
  %116 = load ptr, ptr %16, align 8, !tbaa !132
  %117 = getelementptr inbounds nuw %struct.IDABMemRec, ptr %116, i32 0, i32 16
  %118 = load ptr, ptr %117, align 8, !tbaa !139
  call void @N_VScale(double noundef 1.000000e+00, ptr noundef %115, ptr noundef %118)
  store i32 0, ptr %7, align 4
  store i32 1, ptr %19, align 4
  br label %119

119:                                              ; preds = %94, %92, %61, %53, %46, %29, %22
  call void @llvm.lifetime.end.p0(i64 4, ptr %18) #6
  call void @llvm.lifetime.end.p0(i64 8, ptr %17) #6
  call void @llvm.lifetime.end.p0(i64 8, ptr %16) #6
  call void @llvm.lifetime.end.p0(i64 8, ptr %15) #6
  call void @llvm.lifetime.end.p0(i64 8, ptr %14) #6
  %120 = load i32, ptr %7, align 4
  ret i32 %120
}